target datalayout = "e-m:e-p270:32:32-p271:32:32-p272:64:64-i64:64-i128:128-f80:128-n8:16:32:64-S128"
target triple = "x86_64-pc-linux-gnu"

; Function Attrs: mustprogress nounwind uwtable
define hidden noundef i64 @_ZN20PSAdaptiveSizePolicy28calculate_free_based_on_liveEmm(i64 noundef %0, i64 noundef %1) #1 align 2 {
  %3 = alloca i64, align 8
  %4 = alloca i64, align 8
  %5 = alloca double, align 8
  %6 = alloca double, align 8
  %7 = alloca double, align 8
  %8 = alloca i64, align 8
  store i64 %0, ptr %3, align 8
  store i64 %1, ptr %4, align 8
  %9 = load i64, ptr %4, align 8
  %10 = uitofp i64 %9 to double
  %11 = fdiv double %10, 1.000000e+02
  store double %11, ptr %5, align 8
  %12 = load double, ptr %5, align 8
  %13 = fsub double 1.000000e+00, %12
  store double %13, ptr %6, align 8
  %14 = load i64, ptr %3, align 8
  %15 = uitofp i64 %14 to double
  %16 = load double, ptr %5, align 8
  %17 = fmul double %15, %16
  store double %17, ptr %7, align 8
  %18 = load double, ptr %7, align 8
  %19 = load double, ptr %6, align 8
  %20 = fdiv double %18, %19
  %21 = fptoui double %20 to i64
  store i64 %21, ptr %8, align 8
  %22 = load i64, ptr %8, align 8
  ret i64 %22
}