; Function Attrs: mustprogress nofree norecurse nosync nounwind willreturn memory(none) uwtable
define hidden noundef i64 @_ZN20PSAdaptiveSizePolicy28calculate_free_based_on_liveEmm(i64 noundef %0, i64 noundef %1) local_unnamed_addr #2 align 2 {
  %3 = uitofp i64 %1 to double
  %4 = fdiv double %3, 1.000000e+02
  %5 = fsub double 1.000000e+00, %4
  %6 = uitofp i64 %0 to double
  %7 = fmul double %4, %6
  %8 = fdiv double %7, %5
  %9 = fptoui double %8 to i64
  ret i64 %9
}